target datalayout = "e-m:e-p270:32:32-p271:32:32-p272:64:64-i64:64-i128:128-f80:128-n8:16:32:64-S128"
target triple = "x86_64-pc-linux-gnu"

%class.rational = type { %class.mpq }
%class.mpq = type { %class.mpz, %class.mpz }
%class.mpz = type { i32, i8, ptr }
%"class.lp::lar_solver" = type { %"class.lp::column_namer", %class.trail_stack, %"struct.lp::lp_settings", i32, %class.stacked_value, i32, ptr, %"class.lp::lar_core_solver", ptr, i8, %"class.lp::var_register", %class.svector.44, %"class.lp::constraint_set", %class.indexed_uint_set, %class.indexed_uint_set, %class.svector, %class.scoped_dependency_manager, %class.svector, %class.indexed_uint_set, %class.indexed_uint_set, %class.svector, %class.vector.50, %"class.lp::indexed_vector", %"class.std::unordered_map.51", %"class.lp::stacked_vector.26", %class.map, %class.map, %class.indexed_uint_set, i8, %"class.std::unordered_set", %"class.std::unordered_set.85", %class.rational, %"class.std::function", %"class.std::function.104", %"class.std::function", %"class.std::function.107" }
%"class.lp::column_namer" = type { ptr }
%class.trail_stack = type { %class.ptr_vector, %class.svector, %class.region }
%class.ptr_vector = type { %class.vector }
%class.vector = type { ptr }
%class.region = type { ptr, ptr, ptr, ptr, ptr }
%"struct.lp::lp_settings" = type <{ %"class.lp::lp_settings::default_lp_resource_limit", ptr, ptr, ptr, %"struct.lp::statistics", %class.random_gen, i32, i32, i32, i8, [3 x i8], i32, i8, [3 x i8], i32, double, i8, i8, [2 x i8], i32, i32, i8, [3 x i8], i32, i8, [3 x i8], i32, i8, [3 x i8], i32, i32, i32, i32, i32, i8, [3 x i8], i32, i32, i32, i8, i8, i8, i8, i8, i8, [2 x i8], i32, i32, [4 x i8] }>
%"class.lp::lp_settings::default_lp_resource_limit" = type { %"class.lp::lp_resource_limit", ptr, %class.stopwatch }
%"class.lp::lp_resource_limit" = type { ptr }
%class.stopwatch = type <{ %"class.std::chrono::time_point", %"class.std::chrono::duration", i8, [7 x i8] }>
%"class.std::chrono::time_point" = type { %"class.std::chrono::duration" }
%"class.std::chrono::duration" = type { i64 }
%"struct.lp::statistics" = type { i32, i32, i32, i32, i32, i32, i32, i32, i32, i32, i32, i32, i32, i32, i32, i32, i32, i32, i32, i32, i32, i32, i32, i32, i32, i32, i32, i32, i32, i32, i32, i32, i32, i32, i32, i32, i32, i32, i32, i32, i32, i32, i32, %class.statistics }
%class.statistics = type { %class.svector.1, %class.svector.3 }
%class.svector.1 = type { %class.vector.2 }
%class.vector.2 = type { ptr }
%class.svector.3 = type { %class.vector.4 }
%class.vector.4 = type { ptr }
%class.random_gen = type { i32 }
%class.stacked_value = type { i32, %class.vector.5 }
%class.vector.5 = type { ptr }
%"class.lp::lar_core_solver" = type { %class.vector.6, i32, %class.vector.7, %class.vector.8, %class.stacked_value, %class.vector.7, %class.vector.7, %"class.lp::stacked_vector", %"class.lp::stacked_vector.11", %"class.lp::stacked_vector.11", %"class.lp::static_matrix", %"class.lp::stacked_vector.26", %class.vector.28, %class.vector.28, %"class.std::vector.29", %"class.lp::lp_primal_core_solver" }
%class.vector.6 = type { ptr }
%class.vector.8 = type { ptr }
%class.vector.7 = type { ptr }
%"class.lp::stacked_vector" = type { %class.svector, %class.svector, %class.vector.9, %class.vector.10, %class.svector }
%class.vector.9 = type { ptr }
%class.vector.10 = type { ptr }
%"class.lp::stacked_vector.11" = type { %class.svector, %class.svector, %class.vector.12, %class.vector.7, %class.svector }
%class.vector.12 = type { ptr }
%"class.lp::static_matrix" = type { %"class.std::stack", %class.vector.13, %"class.lp::indexed_vector", %"class.std::vector.18", %"class.std::vector.22" }
%"class.std::stack" = type { %"class.std::deque" }
%"class.std::deque" = type { %"class.std::_Deque_base" }
%"class.std::_Deque_base" = type { %"struct.std::_Deque_base<lp::static_matrix<rational, lp::numeric_pair<rational>>::dim, std::allocator<lp::static_matrix<rational, lp::numeric_pair<rational>>::dim>>::_Deque_impl" }
%"struct.std::_Deque_base<lp::static_matrix<rational, lp::numeric_pair<rational>>::dim, std::allocator<lp::static_matrix<rational, lp::numeric_pair<rational>>::dim>>::_Deque_impl" = type { %"struct.std::_Deque_base<lp::static_matrix<rational, lp::numeric_pair<rational>>::dim, std::allocator<lp::static_matrix<rational, lp::numeric_pair<rational>>::dim>>::_Deque_impl_data" }
%"struct.std::_Deque_base<lp::static_matrix<rational, lp::numeric_pair<rational>>::dim, std::allocator<lp::static_matrix<rational, lp::numeric_pair<rational>>::dim>>::_Deque_impl_data" = type { ptr, i64, %"struct.std::_Deque_iterator", %"struct.std::_Deque_iterator" }
%"struct.std::_Deque_iterator" = type { ptr, ptr, ptr, ptr }
%class.vector.13 = type { ptr }
%"class.std::vector.18" = type { %"struct.std::_Vector_base.19" }
%"struct.std::_Vector_base.19" = type { %"struct.std::_Vector_base<std::vector<lp::row_cell<rational>, std_allocator<lp::row_cell<rational>>>, std_allocator<std::vector<lp::row_cell<rational>, std_allocator<lp::row_cell<rational>>>>>::_Vector_impl" }
%"struct.std::_Vector_base<std::vector<lp::row_cell<rational>, std_allocator<lp::row_cell<rational>>>, std_allocator<std::vector<lp::row_cell<rational>, std_allocator<lp::row_cell<rational>>>>>::_Vector_impl" = type { %"struct.std::_Vector_base<std::vector<lp::row_cell<rational>, std_allocator<lp::row_cell<rational>>>, std_allocator<std::vector<lp::row_cell<rational>, std_allocator<lp::row_cell<rational>>>>>::_Vector_impl_data" }
%"struct.std::_Vector_base<std::vector<lp::row_cell<rational>, std_allocator<lp::row_cell<rational>>>, std_allocator<std::vector<lp::row_cell<rational>, std_allocator<lp::row_cell<rational>>>>>::_Vector_impl_data" = type { ptr, ptr, ptr }
%"class.std::vector.22" = type { %"struct.std::_Vector_base.23" }
%"struct.std::_Vector_base.23" = type { %"struct.std::_Vector_base<std::vector<lp::row_cell<lp::empty_struct>, std_allocator<lp::row_cell<lp::empty_struct>>>, std_allocator<std::vector<lp::row_cell<lp::empty_struct>, std_allocator<lp::row_cell<lp::empty_struct>>>>>::_Vector_impl" }
%"struct.std::_Vector_base<std::vector<lp::row_cell<lp::empty_struct>, std_allocator<lp::row_cell<lp::empty_struct>>>, std_allocator<std::vector<lp::row_cell<lp::empty_struct>, std_allocator<lp::row_cell<lp::empty_struct>>>>>::_Vector_impl" = type { %"struct.std::_Vector_base<std::vector<lp::row_cell<lp::empty_struct>, std_allocator<lp::row_cell<lp::empty_struct>>>, std_allocator<std::vector<lp::row_cell<lp::empty_struct>, std_allocator<lp::row_cell<lp::empty_struct>>>>>::_Vector_impl_data" }
%"struct.std::_Vector_base<std::vector<lp::row_cell<lp::empty_struct>, std_allocator<lp::row_cell<lp::empty_struct>>>, std_allocator<std::vector<lp::row_cell<lp::empty_struct>, std_allocator<lp::row_cell<lp::empty_struct>>>>>::_Vector_impl_data" = type { ptr, ptr, ptr }
%class.vector.28 = type { ptr }
%"class.std::vector.29" = type { %"struct.std::_Vector_base.30" }
%"struct.std::_Vector_base.30" = type { %"struct.std::_Vector_base<int, std_allocator<int>>::_Vector_impl" }
%"struct.std::_Vector_base<int, std_allocator<int>>::_Vector_impl" = type { %"struct.std::_Vector_base<int, std_allocator<int>>::_Vector_impl_data" }
%"struct.std::_Vector_base<int, std_allocator<int>>::_Vector_impl_data" = type { ptr, ptr, ptr }
%"class.lp::lp_primal_core_solver" = type { %"class.lp::lp_core_solver_base.base", i32, %class.vector.8, i32, i8, %class.indexed_uint_set, i32, i32, %class.vector.28, %"class.std::__cxx11::list" }
%"class.lp::lp_core_solver_base.base" = type <{ ptr, i32, i32, i32, [4 x i8], %class.heap, %"class.lp::indexed_vector", ptr, ptr, ptr, ptr, ptr, ptr, ptr, ptr, %class.vector.8, ptr, ptr, ptr, i32, [4 x i8], %class.vector.28, i8, [7 x i8], ptr, i8 }>
%class.heap = type { %class.svector.33, %class.svector.33 }
%class.svector.33 = type { %class.vector.34 }
%class.vector.34 = type { ptr }
%"class.std::__cxx11::list" = type { %"class.std::__cxx11::_List_base" }
%"class.std::__cxx11::_List_base" = type { %"struct.std::__cxx11::_List_base<unsigned int, std::allocator<unsigned int>>::_List_impl" }
%"struct.std::__cxx11::_List_base<unsigned int, std::allocator<unsigned int>>::_List_impl" = type { %"struct.std::__detail::_List_node_header" }
%"struct.std::__detail::_List_node_header" = type { %"struct.std::__detail::_List_node_base", i64 }
%"struct.std::__detail::_List_node_base" = type { ptr, ptr }
%"class.lp::var_register" = type { %class.vector.38, %"class.std::unordered_map" }
%class.vector.38 = type { ptr }
%"class.std::unordered_map" = type { %"class.std::_Hashtable" }
%"class.std::_Hashtable" = type { ptr, i64, %"struct.std::__detail::_Hash_node_base", i64, %"struct.std::__detail::_Prime_rehash_policy", ptr }
%"struct.std::__detail::_Hash_node_base" = type { ptr }
%"struct.std::__detail::_Prime_rehash_policy" = type { float, i64 }
%class.svector.44 = type { %class.vector.45 }
%class.vector.45 = type { ptr }
%"class.lp::constraint_set" = type { %class.region, ptr, ptr, %class.vector.46, %class.stacked_value.47, %class.svector, %class.stacked_value.47 }
%class.vector.46 = type { ptr }
%class.stacked_value.47 = type { i32, %class.vector.28 }
%class.scoped_dependency_manager = type { [8 x i8], %"class.scoped_dependency_manager<unsigned int>::config::allocator", %class.dependency_manager }
%"class.scoped_dependency_manager<unsigned int>::config::allocator" = type { %class.region }
%class.dependency_manager = type { ptr, ptr, %class.ptr_vector.48 }
%class.ptr_vector.48 = type { %class.vector.49 }
%class.vector.49 = type { ptr }
%class.svector = type { %class.vector.0 }
%class.vector.0 = type { ptr }
%class.vector.50 = type { ptr }
%"class.lp::indexed_vector" = type { %"class.std::vector", %"class.std::vector.14" }
%"class.std::vector" = type { %"struct.std::_Vector_base" }
%"struct.std::_Vector_base" = type { %"struct.std::_Vector_base<rational, std_allocator<rational>>::_Vector_impl" }
%"struct.std::_Vector_base<rational, std_allocator<rational>>::_Vector_impl" = type { %"struct.std::_Vector_base<rational, std_allocator<rational>>::_Vector_impl_data" }
%"struct.std::_Vector_base<rational, std_allocator<rational>>::_Vector_impl_data" = type { ptr, ptr, ptr }
%"class.std::vector.14" = type { %"struct.std::_Vector_base.15" }
%"struct.std::_Vector_base.15" = type { %"struct.std::_Vector_base<unsigned int, std_allocator<unsigned int>>::_Vector_impl" }
%"struct.std::_Vector_base<unsigned int, std_allocator<unsigned int>>::_Vector_impl" = type { %"struct.std::_Vector_base<unsigned int, std_allocator<unsigned int>>::_Vector_impl_data" }
%"struct.std::_Vector_base<unsigned int, std_allocator<unsigned int>>::_Vector_impl_data" = type { ptr, ptr, ptr }
%"class.std::unordered_map.51" = type { %"class.std::_Hashtable.52" }
%"class.std::_Hashtable.52" = type { ptr, i64, %"struct.std::__detail::_Hash_node_base", i64, %"struct.std::__detail::_Prime_rehash_policy", ptr }
%"class.lp::stacked_vector.26" = type { %class.svector, %class.svector, %class.vector.27, %class.vector.28, %class.svector }
%class.vector.27 = type { ptr }
%class.map = type { %class.table2map }
%class.table2map = type { %class.core_hashtable }
%class.core_hashtable = type <{ ptr, i32, i32, i32, [4 x i8] }>
%class.indexed_uint_set = type { i32, %class.svector, %class.svector }
%"class.std::unordered_set" = type { %"class.std::_Hashtable.67" }
%"class.std::_Hashtable.67" = type { ptr, i64, %"struct.std::__detail::_Hash_node_base", i64, %"struct.std::__detail::_Prime_rehash_policy", ptr }
%"class.std::unordered_set.85" = type { %"class.std::_Hashtable.86" }
%"class.std::_Hashtable.86" = type { ptr, i64, %"struct.std::__detail::_Hash_node_base", i64, %"struct.std::__detail::_Prime_rehash_policy", ptr }
%"class.std::function.104" = type { %"class.std::_Function_base", ptr }
%"class.std::_Function_base" = type { %"union.std::_Any_data", ptr }
%"union.std::_Any_data" = type { %"union.std::_Nocopy_types" }
%"union.std::_Nocopy_types" = type { { i64, i64 } }
%"class.std::function" = type { %"class.std::_Function_base", ptr }
%"class.std::function.107" = type { %"class.std::_Function_base", ptr }
%"class.lp::lp_core_solver_base" = type <{ ptr, i32, i32, i32, [4 x i8], %class.heap, %"class.lp::indexed_vector", ptr, ptr, ptr, ptr, ptr, ptr, ptr, ptr, %class.vector.8, ptr, ptr, ptr, i32, [4 x i8], %class.vector.28, i8, [7 x i8], ptr, i8, [7 x i8] }>

; Function Attrs: mustprogress nounwind uwtable
define linkonce_odr hidden noundef ptr @_ZNK6vectorIjLb0EjE5beginEv(ptr noundef nonnull align 8 dereferenceable(8) %0) #4 comdat align 2 {
  %2 = alloca ptr, align 8
  store ptr %0, ptr %2, align 8, !tbaa !373
  %3 = load ptr, ptr %2, align 8
  %4 = getelementptr inbounds nuw %class.vector.0, ptr %3, i32 0, i32 0
  %5 = load ptr, ptr %4, align 8, !tbaa !375
  ret ptr %5
}

; Function Attrs: mustprogress uwtable
define linkonce_odr hidden noundef ptr @_ZNK16indexed_uint_set3endEv(ptr noundef nonnull align 8 dereferenceable(24) %0) #6 comdat align 2 {
  %2 = alloca ptr, align 8
  store ptr %0, ptr %2, align 8, !tbaa !243
  %3 = load ptr, ptr %2, align 8
  %4 = getelementptr inbounds nuw %class.indexed_uint_set, ptr %3, i32 0, i32 1
  %5 = call noundef ptr @_ZNK6vectorIjLb0EjE5beginEv(ptr noundef nonnull align 8 dereferenceable(8) %4)
  %6 = getelementptr inbounds nuw %class.indexed_uint_set, ptr %3, i32 0, i32 0
  %7 = load i32, ptr %6, align 8, !tbaa !244
  %8 = zext i32 %7 to i64
  %9 = getelementptr inbounds nuw i32, ptr %5, i64 %8
  ret ptr %9
}

; Function Attrs: mustprogress uwtable
define linkonce_odr hidden noundef ptr @_ZNK16indexed_uint_set5beginEv(ptr noundef nonnull align 8 dereferenceable(24) %0) #6 comdat align 2 {
  %2 = alloca ptr, align 8
  store ptr %0, ptr %2, align 8, !tbaa !243
  %3 = load ptr, ptr %2, align 8
  %4 = getelementptr inbounds nuw %class.indexed_uint_set, ptr %3, i32 0, i32 1
  %5 = call noundef ptr @_ZNK6vectorIjLb0EjE5beginEv(ptr noundef nonnull align 8 dereferenceable(8) %4)
  ret ptr %5
}

; Function Attrs: mustprogress nounwind uwtable
define hidden void @_ZN2lp10lar_solver10set_statusENS_9lp_statusE(ptr noundef nonnull align 8 dereferenceable(2128) %0, i32 noundef %1) #4 align 2 {
  %3 = alloca ptr, align 8
  %4 = alloca i32, align 4
  store ptr %0, ptr %3, align 8, !tbaa !16
  store i32 %1, ptr %4, align 4, !tbaa !358
  %5 = load ptr, ptr %3, align 8
  %6 = load i32, ptr %4, align 4, !tbaa !358
  %7 = getelementptr inbounds nuw %"class.lp::lar_solver", ptr %5, i32 0, i32 3
  store i32 %6, ptr %7, align 8, !tbaa !78
  ret void
}

; Function Attrs: mustprogress nounwind uwtable
define linkonce_odr hidden noundef i32 @_ZNK2lp19lp_core_solver_baseI8rationalNS_12numeric_pairIS1_EEE10get_statusEv(ptr noundef nonnull align 8 dereferenceable(217) %0) #4 comdat align 2 {
  %2 = alloca ptr, align 8
  store ptr %0, ptr %2, align 8, !tbaa !402
  %3 = load ptr, ptr %2, align 8
  %4 = getelementptr inbounds nuw %"class.lp::lp_core_solver_base", ptr %3, i32 0, i32 3
  %5 = load i32, ptr %4, align 8, !tbaa !404
  ret i32 %5
}

; Function Attrs: mustprogress uwtable
define hidden void @_ZN2lp10lar_solver62update_x_and_inf_costs_for_columns_with_changed_bounds_tableauEv(ptr noundef nonnull align 8 dereferenceable(2128) %0) #6 align 2 {
  %2 = alloca ptr, align 8
  %3 = alloca ptr, align 8
  %4 = alloca ptr, align 8
  %5 = alloca ptr, align 8
  %6 = alloca i32, align 4
  store ptr %0, ptr %2, align 8, !tbaa !16
  %7 = load ptr, ptr %2, align 8
  call void @llvm.lifetime.start.p0(i64 8, ptr %3) #3
  %8 = getelementptr inbounds nuw %"class.lp::lar_solver", ptr %7, i32 0, i32 13
  store ptr %8, ptr %3, align 8, !tbaa !243
  call void @llvm.lifetime.start.p0(i64 8, ptr %4) #3
  %9 = load ptr, ptr %3, align 8, !tbaa !243
  %10 = call noundef ptr @_ZNK16indexed_uint_set5beginEv(ptr noundef nonnull align 8 dereferenceable(24) %9)
  store ptr %10, ptr %4, align 8, !tbaa !327
  call void @llvm.lifetime.start.p0(i64 8, ptr %5) #3
  %11 = load ptr, ptr %3, align 8, !tbaa !243
  %12 = call noundef ptr @_ZNK16indexed_uint_set3endEv(ptr noundef nonnull align 8 dereferenceable(24) %11)
  store ptr %12, ptr %5, align 8, !tbaa !327
  br label %13

13:                                               ; preds = %22, %1
  %14 = load ptr, ptr %4, align 8, !tbaa !327
  %15 = load ptr, ptr %5, align 8, !tbaa !327
  %16 = icmp ne ptr %14, %15
  br i1 %16, label %18, label %17

17:                                               ; preds = %13
  call void @llvm.lifetime.end.p0(i64 8, ptr %5) #3
  call void @llvm.lifetime.end.p0(i64 8, ptr %4) #3
  call void @llvm.lifetime.end.p0(i64 8, ptr %3) #3
  br label %25

18:                                               ; preds = %13
  call void @llvm.lifetime.start.p0(i64 4, ptr %6) #3
  %19 = load ptr, ptr %4, align 8, !tbaa !327
  %20 = load i32, ptr %19, align 4, !tbaa !8
  store i32 %20, ptr %6, align 4, !tbaa !8
  %21 = load i32, ptr %6, align 4, !tbaa !8
  call void @_ZN2lp10lar_solver53update_x_and_inf_costs_for_column_with_changed_boundsEj(ptr noundef nonnull align 8 dereferenceable(2128) %7, i32 noundef %21)
  call void @llvm.lifetime.end.p0(i64 4, ptr %6) #3
  br label %22

22:                                               ; preds = %18
  %23 = load ptr, ptr %4, align 8, !tbaa !327
  %24 = getelementptr inbounds nuw i32, ptr %23, i32 1
  store ptr %24, ptr %4, align 8, !tbaa !327
  br label %13

25:                                               ; preds = %17
  ret void
}

; Function Attrs: mustprogress uwtable
define hidden void @_ZN2lp10lar_solver22solve_with_core_solverEv(ptr noundef nonnull align 8 dereferenceable(2128) %0) #6 align 2 {
  %2 = alloca ptr, align 8
  store ptr %0, ptr %2, align 8, !tbaa !16
  %3 = load ptr, ptr %2, align 8
  %4 = getelementptr inbounds nuw %"class.lp::lar_solver", ptr %3, i32 0, i32 7
  call void @_ZN2lp15lar_core_solver8prefix_rEv(ptr noundef nonnull align 8 dereferenceable(752) %4)
  call void @_ZN2lp10lar_solver62update_x_and_inf_costs_for_columns_with_changed_bounds_tableauEv(ptr noundef nonnull align 8 dereferenceable(2128) %3)
  %5 = getelementptr inbounds nuw %"class.lp::lar_solver", ptr %3, i32 0, i32 7
  call void @_ZN2lp15lar_core_solver5solveEv(ptr noundef nonnull align 8 dereferenceable(752) %5)
  %6 = getelementptr inbounds nuw %"class.lp::lar_solver", ptr %3, i32 0, i32 7
  %7 = getelementptr inbounds nuw %"class.lp::lar_core_solver", ptr %6, i32 0, i32 15
  %8 = call noundef i32 @_ZNK2lp19lp_core_solver_baseI8rationalNS_12numeric_pairIS1_EEE10get_statusEv(ptr noundef nonnull align 8 dereferenceable(217) %7)
  call void @_ZN2lp10lar_solver10set_statusENS_9lp_statusE(ptr noundef nonnull align 8 dereferenceable(2128) %3, i32 noundef %8)
  ret void
}