; Function Attrs: mustprogress uwtable
define hidden void @_ZN2lp10lar_solver22solve_with_core_solverEv(ptr noundef nonnull align 8 dereferenceable(2128) %0) local_unnamed_addr #5 align 2 {
  %2 = getelementptr inbounds nuw i8, ptr %0, i64 488
  tail call void @_ZN2lp15lar_core_solver8prefix_rEv(ptr noundef nonnull align 8 dereferenceable(752) %2)
  %3 = getelementptr inbounds nuw i8, ptr %0, i64 1432
  %4 = getelementptr inbounds nuw i8, ptr %0, i64 1440
  %5 = load ptr, ptr %4, align 8, !tbaa !247
  %6 = load i32, ptr %3, align 8, !tbaa !225
  %7 = zext i32 %6 to i64
  %8 = getelementptr inbounds nuw i32, ptr %5, i64 %7
  %.not7.i = icmp eq i32 %6, 0
  br i1 %.not7.i, label %_ZN2lp10lar_solver62update_x_and_inf_costs_for_columns_with_changed_bounds_tableauEv.exit, label %.lr.ph.i

.lr.ph.i:                                         ; preds = %1, %.lr.ph.i
  %.08.i = phi ptr [ %10, %.lr.ph.i ], [ %5, %1 ]
  %9 = load i32, ptr %.08.i, align 4, !tbaa !261
  tail call void @_ZN2lp10lar_solver53update_x_and_inf_costs_for_column_with_changed_boundsEj(ptr noundef nonnull align 8 dereferenceable(2128) %0, i32 noundef %9)
  %10 = getelementptr inbounds nuw i8, ptr %.08.i, i64 4
  %.not.i = icmp eq ptr %10, %8
  br i1 %.not.i, label %_ZN2lp10lar_solver62update_x_and_inf_costs_for_columns_with_changed_bounds_tableauEv.exit, label %.lr.ph.i

_ZN2lp10lar_solver62update_x_and_inf_costs_for_columns_with_changed_bounds_tableauEv.exit: ; preds = %.lr.ph.i, %1
  tail call void @_ZN2lp15lar_core_solver5solveEv(ptr noundef nonnull align 8 dereferenceable(752) %2)
  %11 = getelementptr inbounds nuw i8, ptr %0, i64 952
  %12 = load i32, ptr %11, align 8, !tbaa !381
  %13 = getelementptr inbounds nuw i8, ptr %0, i64 448
  store i32 %12, ptr %13, align 8, !tbaa !100
  ret void
}